target datalayout = "e-m:e-p270:32:32-p271:32:32-p272:64:64-i64:64-i128:128-f80:128-n8:16:32:64-S128"
target triple = "x86_64-pc-linux-gnu"

; Function Attrs: inlinehint mustprogress nounwind uwtable
define internal noundef signext i8 @_ZL9U_FAILURE10UErrorCode(i32 noundef %0) #4 {
  %2 = alloca i32, align 4
  store i32 %0, ptr %2, align 4, !tbaa !19
  %3 = load i32, ptr %2, align 4, !tbaa !19
  %4 = icmp sgt i32 %3, 0
  %5 = zext i1 %4 to i8
  ret i8 %5
}

; Function Attrs: mustprogress uwtable
define noundef i64 @_ZNK6icu_7723IslamicUmalquraCalendar10monthStartEiiR10UErrorCode(ptr noundef nonnull align 8 dereferenceable(192) %0, i32 noundef %1, i32 noundef %2, ptr noundef nonnull align 4 dereferenceable(4) %3) unnamed_addr #1 align 2 {
  %5 = alloca i64, align 8
  %6 = alloca ptr, align 8
  %7 = alloca i32, align 4
  %8 = alloca i32, align 4
  %9 = alloca ptr, align 8
  %10 = alloca i64, align 8
  %11 = alloca i32, align 4
  %12 = alloca i32, align 4
  store ptr %0, ptr %6, align 8, !tbaa !47
  store i32 %1, ptr %7, align 4, !tbaa !17
  store i32 %2, ptr %8, align 4, !tbaa !17
  store ptr %3, ptr %9, align 8, !tbaa !12
  %13 = load ptr, ptr %6, align 8
  call void @llvm.lifetime.start.p0(i64 8, ptr %10) #8
  %14 = load i32, ptr %7, align 4, !tbaa !17
  %15 = load ptr, ptr %9, align 8, !tbaa !12
  %16 = load ptr, ptr %13, align 8, !tbaa !8
  %17 = getelementptr inbounds ptr, ptr %16, i64 56
  %18 = load ptr, ptr %17, align 8
  %19 = call noundef i64 %18(ptr noundef nonnull align 8 dereferenceable(192) %13, i32 noundef %14, ptr noundef nonnull align 4 dereferenceable(4) %15)
  store i64 %19, ptr %10, align 8, !tbaa !21
  %20 = load ptr, ptr %9, align 8, !tbaa !12
  %21 = load i32, ptr %20, align 4, !tbaa !19
  %22 = call noundef signext i8 @_ZL9U_FAILURE10UErrorCode(i32 noundef %21)
  %23 = icmp ne i8 %22, 0
  br i1 %23, label %24, label %25

24:                                               ; preds = %4
  store i64 0, ptr %5, align 8
  store i32 1, ptr %11, align 4
  br label %55

25:                                               ; preds = %4
  call void @llvm.lifetime.start.p0(i64 4, ptr %12) #8
  store i32 0, ptr %12, align 4, !tbaa !17
  br label %26

26:                                               ; preds = %48, %25
  %27 = load i32, ptr %12, align 4, !tbaa !17
  %28 = load i32, ptr %8, align 4, !tbaa !17
  %29 = icmp slt i32 %27, %28
  br i1 %29, label %31, label %30

30:                                               ; preds = %26
  store i32 2, ptr %11, align 4
  br label %51

31:                                               ; preds = %26
  %32 = load i32, ptr %7, align 4, !tbaa !17
  %33 = load i32, ptr %12, align 4, !tbaa !17
  %34 = load ptr, ptr %9, align 8, !tbaa !12
  %35 = load ptr, ptr %13, align 8, !tbaa !8
  %36 = getelementptr inbounds ptr, ptr %35, i64 40
  %37 = load ptr, ptr %36, align 8
  %38 = call noundef i32 %37(ptr noundef nonnull align 8 dereferenceable(192) %13, i32 noundef %32, i32 noundef %33, ptr noundef nonnull align 4 dereferenceable(4) %34)
  %39 = sext i32 %38 to i64
  %40 = load i64, ptr %10, align 8, !tbaa !21
  %41 = add nsw i64 %40, %39
  store i64 %41, ptr %10, align 8, !tbaa !21
  %42 = load ptr, ptr %9, align 8, !tbaa !12
  %43 = load i32, ptr %42, align 4, !tbaa !19
  %44 = call noundef signext i8 @_ZL9U_FAILURE10UErrorCode(i32 noundef %43)
  %45 = icmp ne i8 %44, 0
  br i1 %45, label %46, label %47

46:                                               ; preds = %31
  store i64 0, ptr %5, align 8
  store i32 1, ptr %11, align 4
  br label %51

47:                                               ; preds = %31
  br label %48

48:                                               ; preds = %47
  %49 = load i32, ptr %12, align 4, !tbaa !17
  %50 = add nsw i32 %49, 1
  store i32 %50, ptr %12, align 4, !tbaa !17
  br label %26, !llvm.loop !49

51:                                               ; preds = %46, %30
  call void @llvm.lifetime.end.p0(i64 4, ptr %12) #8
  %52 = load i32, ptr %11, align 4
  switch i32 %52, label %55 [
    i32 2, label %53
  ]

53:                                               ; preds = %51
  %54 = load i64, ptr %10, align 8, !tbaa !21
  store i64 %54, ptr %5, align 8
  store i32 1, ptr %11, align 4
  br label %55

55:                                               ; preds = %53, %51, %24
  call void @llvm.lifetime.end.p0(i64 8, ptr %10) #8
  %56 = load i64, ptr %5, align 8
  ret i64 %56
}