; Function Attrs: mustprogress uwtable
define noundef i64 @_ZNK6icu_7723IslamicUmalquraCalendar10monthStartEiiR10UErrorCode(ptr noundef nonnull align 8 dereferenceable(192) %0, i32 noundef %1, i32 noundef %2, ptr noundef nonnull align 4 dereferenceable(4) %3) unnamed_addr #1 align 2 {
  %5 = load ptr, ptr %0, align 8, !tbaa !3
  %6 = getelementptr inbounds nuw i8, ptr %5, i64 448
  %7 = load ptr, ptr %6, align 8
  %8 = tail call noundef i64 %7(ptr noundef nonnull align 8 dereferenceable(192) %0, i32 noundef %1, ptr noundef nonnull align 4 dereferenceable(4) %3)
  %9 = load i32, ptr %3, align 4, !tbaa !9
  %10 = icmp slt i32 %9, 1
  br i1 %10, label %.preheader, label %.loopexit

.preheader:                                       ; preds = %4
  %.not1920 = icmp sgt i32 %2, 0
  br i1 %.not1920, label %.lr.ph, label %.loopexit

.lr.ph:                                           ; preds = %.preheader, %17
  %.022 = phi i32 [ %20, %17 ], [ 0, %.preheader ]
  %.01521 = phi i64 [ %19, %17 ], [ %8, %.preheader ]
  %11 = load ptr, ptr %0, align 8, !tbaa !3
  %12 = getelementptr inbounds nuw i8, ptr %11, i64 320
  %13 = load ptr, ptr %12, align 8
  %14 = tail call noundef i32 %13(ptr noundef nonnull align 8 dereferenceable(192) %0, i32 noundef %1, i32 noundef %.022, ptr noundef nonnull align 4 dereferenceable(4) %3)
  %15 = load i32, ptr %3, align 4, !tbaa !9
  %16 = icmp slt i32 %15, 1
  br i1 %16, label %17, label %.loopexit

17:                                               ; preds = %.lr.ph
  %18 = sext i32 %14 to i64
  %19 = add nsw i64 %.01521, %18
  %20 = add nuw nsw i32 %.022, 1
  %exitcond.not = icmp eq i32 %20, %2
  br i1 %exitcond.not, label %.loopexit, label %.lr.ph, !llvm.loop !28

.loopexit:                                        ; preds = %.lr.ph, %17, %.preheader, %4
  %.016 = phi i64 [ 0, %4 ], [ %8, %.preheader ], [ 0, %.lr.ph ], [ %19, %17 ]
  ret i64 %.016
}